target datalayout = "e-m:e-p270:32:32-p271:32:32-p272:64:64-i64:64-i128:128-f80:128-n8:16:32:64-S128"
target triple = "x86_64-unknown-linux-gnu"

%struct.Visitor = type { ptr, ptr, ptr, ptr, ptr, ptr, ptr, ptr, ptr, ptr, ptr, ptr, ptr, ptr, ptr, ptr, ptr, ptr, ptr, ptr, i32, %struct.CompatPolicy, ptr, ptr }
%struct.CompatPolicy = type { i8, i32, i8, i32, i8, i32, i8, i32 }
%struct.timeval = type { i64, i64 }

@.str.1 = private unnamed_addr constant [31 x i8] c"../qemu/qapi/qapi-visit-core.c\00", align 1
@.str.2 = private unnamed_addr constant [5 x i8] c"size\00", align 1
@__PRETTY_FUNCTION__.visit_start_struct = private unnamed_addr constant [77 x i8] c"_Bool visit_start_struct(Visitor *, const char *, void **, size_t, Error **)\00", align 1
@.str.3 = private unnamed_addr constant [36 x i8] c"!(v->type & VISITOR_OUTPUT) || *obj\00", align 1
@.str.4 = private unnamed_addr constant [12 x i8] c"ok != !*obj\00", align 1
@trace_events_enabled_count = external global i32, align 4
@message_with_timestamp = external global i8, align 1
@qemu_loglevel = external global i32, align 4
@_TRACE_VISIT_START_STRUCT_DSTATE = external global i16, align 2
@.str.23 = private unnamed_addr constant [62 x i8] c"%d@%zu.%06zu:visit_start_struct v=%p name=%s obj=%p size=%zu\0A\00", align 1
@.str.24 = private unnamed_addr constant [49 x i8] c"visit_start_struct v=%p name=%s obj=%p size=%zu\0A\00", align 1

; Function Attrs: nounwind sspstrong uwtable
define internal zeroext i1 @qemu_loglevel_mask(i32 noundef %mask) #0 {
entry:
  %mask.addr = alloca i32, align 4
  store i32 %mask, ptr %mask.addr, align 4
  %0 = load i32, ptr @qemu_loglevel, align 4
  %1 = load i32, ptr %mask.addr, align 4
  %and = and i32 %0, %1
  %cmp = icmp ne i32 %and, 0
  ret i1 %cmp
}

; Function Attrs: nounwind sspstrong uwtable
define internal void @_nocheck__trace_visit_start_struct(ptr noundef %v, ptr noundef %name, ptr noundef %obj, i64 noundef %size) #0 {
entry:
  %v.addr = alloca ptr, align 8
  %name.addr = alloca ptr, align 8
  %obj.addr = alloca ptr, align 8
  %size.addr = alloca i64, align 8
  %_now = alloca %struct.timeval, align 8
  store ptr %v, ptr %v.addr, align 8
  store ptr %name, ptr %name.addr, align 8
  store ptr %obj, ptr %obj.addr, align 8
  store i64 %size, ptr %size.addr, align 8
  %0 = load i32, ptr @trace_events_enabled_count, align 4
  %tobool = icmp ne i32 %0, 0
  %lnot = xor i1 %tobool, true
  %lnot1 = xor i1 %lnot, true
  %lnot.ext = zext i1 %lnot1 to i32
  %conv = sext i32 %lnot.ext to i64
  %tobool2 = icmp ne i64 %conv, 0
  br i1 %tobool2, label %land.lhs.true, label %if.end11

land.lhs.true:                                    ; preds = %entry
  %1 = load i16, ptr @_TRACE_VISIT_START_STRUCT_DSTATE, align 2
  %conv3 = zext i16 %1 to i32
  %tobool4 = icmp ne i32 %conv3, 0
  br i1 %tobool4, label %land.lhs.true5, label %if.end11

land.lhs.true5:                                   ; preds = %land.lhs.true
  %call = call zeroext i1 @qemu_loglevel_mask(i32 noundef 32768)
  br i1 %call, label %if.then, label %if.end11

if.then:                                          ; preds = %land.lhs.true5
  %2 = load i8, ptr @message_with_timestamp, align 1
  %tobool7 = trunc i8 %2 to i1
  br i1 %tobool7, label %if.then8, label %if.else

if.then8:                                         ; preds = %if.then
  %call9 = call i32 @gettimeofday(ptr noundef %_now, ptr noundef null) #6
  %call10 = call i32 @qemu_get_thread_id()
  %tv_sec = getelementptr inbounds %struct.timeval, ptr %_now, i32 0, i32 0
  %3 = load i64, ptr %tv_sec, align 8
  %tv_usec = getelementptr inbounds %struct.timeval, ptr %_now, i32 0, i32 1
  %4 = load i64, ptr %tv_usec, align 8
  %5 = load ptr, ptr %v.addr, align 8
  %6 = load ptr, ptr %name.addr, align 8
  %7 = load ptr, ptr %obj.addr, align 8
  %8 = load i64, ptr %size.addr, align 8
  call void (ptr, ...) @qemu_log(ptr noundef @.str.23, i32 noundef %call10, i64 noundef %3, i64 noundef %4, ptr noundef %5, ptr noundef %6, ptr noundef %7, i64 noundef %8)
  br label %if.end

if.else:                                          ; preds = %if.then
  %9 = load ptr, ptr %v.addr, align 8
  %10 = load ptr, ptr %name.addr, align 8
  %11 = load ptr, ptr %obj.addr, align 8
  %12 = load i64, ptr %size.addr, align 8
  call void (ptr, ...) @qemu_log(ptr noundef @.str.24, ptr noundef %9, ptr noundef %10, ptr noundef %11, i64 noundef %12)
  br label %if.end

if.end:                                           ; preds = %if.else, %if.then8
  br label %if.end11

if.end11:                                         ; preds = %if.end, %land.lhs.true5, %land.lhs.true, %entry
  ret void
}

; Function Attrs: nounwind sspstrong uwtable
define internal void @trace_visit_start_struct(ptr noundef %v, ptr noundef %name, ptr noundef %obj, i64 noundef %size) #0 {
entry:
  %v.addr = alloca ptr, align 8
  %name.addr = alloca ptr, align 8
  %obj.addr = alloca ptr, align 8
  %size.addr = alloca i64, align 8
  store ptr %v, ptr %v.addr, align 8
  store ptr %name, ptr %name.addr, align 8
  store ptr %obj, ptr %obj.addr, align 8
  store i64 %size, ptr %size.addr, align 8
  %0 = load ptr, ptr %v.addr, align 8
  %1 = load ptr, ptr %name.addr, align 8
  %2 = load ptr, ptr %obj.addr, align 8
  %3 = load i64, ptr %size.addr, align 8
  call void @_nocheck__trace_visit_start_struct(ptr noundef %0, ptr noundef %1, ptr noundef %2, i64 noundef %3)
  ret void
}

; Function Attrs: nounwind sspstrong uwtable
define dso_local zeroext i1 @visit_start_struct(ptr noundef %v, ptr noundef %name, ptr noundef %obj, i64 noundef %size, ptr noundef %errp) #0 {
entry:
  %v.addr = alloca ptr, align 8
  %name.addr = alloca ptr, align 8
  %obj.addr = alloca ptr, align 8
  %size.addr = alloca i64, align 8
  %errp.addr = alloca ptr, align 8
  %ok = alloca i8, align 1
  store ptr %v, ptr %v.addr, align 8
  store ptr %name, ptr %name.addr, align 8
  store ptr %obj, ptr %obj.addr, align 8
  store i64 %size, ptr %size.addr, align 8
  store ptr %errp, ptr %errp.addr, align 8
  %0 = load ptr, ptr %v.addr, align 8
  %1 = load ptr, ptr %name.addr, align 8
  %2 = load ptr, ptr %obj.addr, align 8
  %3 = load i64, ptr %size.addr, align 8
  call void @trace_visit_start_struct(ptr noundef %0, ptr noundef %1, ptr noundef %2, i64 noundef %3)
  %4 = load ptr, ptr %obj.addr, align 8
  %tobool = icmp ne ptr %4, null
  br i1 %tobool, label %if.then, label %if.end8

if.then:                                          ; preds = %entry
  %5 = load i64, ptr %size.addr, align 8
  %tobool1 = icmp ne i64 %5, 0
  br i1 %tobool1, label %if.then2, label %if.else

if.then2:                                         ; preds = %if.then
  br label %if.end

if.else:                                          ; preds = %if.then
  call void @__assert_fail(ptr noundef @.str.2, ptr noundef @.str.1, i32 noundef 51, ptr noundef @__PRETTY_FUNCTION__.visit_start_struct) #5
  unreachable

if.end:                                           ; preds = %if.then2
  %6 = load ptr, ptr %v.addr, align 8
  %type = getelementptr inbounds %struct.Visitor, ptr %6, i32 0, i32 20
  %7 = load i32, ptr %type, align 8
  %and = and i32 %7, 2
  %tobool3 = icmp ne i32 %and, 0
  br i1 %tobool3, label %lor.lhs.false, label %if.then5

lor.lhs.false:                                    ; preds = %if.end
  %8 = load ptr, ptr %obj.addr, align 8
  %9 = load ptr, ptr %8, align 8
  %tobool4 = icmp ne ptr %9, null
  br i1 %tobool4, label %if.then5, label %if.else6

if.then5:                                         ; preds = %lor.lhs.false, %if.end
  br label %if.end7

if.else6:                                         ; preds = %lor.lhs.false
  call void @__assert_fail(ptr noundef @.str.3, ptr noundef @.str.1, i32 noundef 52, ptr noundef @__PRETTY_FUNCTION__.visit_start_struct) #5
  unreachable

if.end7:                                          ; preds = %if.then5
  br label %if.end8

if.end8:                                          ; preds = %if.end7, %entry
  %10 = load ptr, ptr %v.addr, align 8
  %start_struct = getelementptr inbounds %struct.Visitor, ptr %10, i32 0, i32 0
  %11 = load ptr, ptr %start_struct, align 8
  %12 = load ptr, ptr %v.addr, align 8
  %13 = load ptr, ptr %name.addr, align 8
  %14 = load ptr, ptr %obj.addr, align 8
  %15 = load i64, ptr %size.addr, align 8
  %16 = load ptr, ptr %errp.addr, align 8
  %call = call zeroext i1 %11(ptr noundef %12, ptr noundef %13, ptr noundef %14, i64 noundef %15, ptr noundef %16)
  %frombool = zext i1 %call to i8
  store i8 %frombool, ptr %ok, align 1
  %17 = load ptr, ptr %obj.addr, align 8
  %tobool9 = icmp ne ptr %17, null
  br i1 %tobool9, label %land.lhs.true, label %if.end20

land.lhs.true:                                    ; preds = %if.end8
  %18 = load ptr, ptr %v.addr, align 8
  %type10 = getelementptr inbounds %struct.Visitor, ptr %18, i32 0, i32 20
  %19 = load i32, ptr %type10, align 8
  %and11 = and i32 %19, 1
  %tobool12 = icmp ne i32 %and11, 0
  br i1 %tobool12, label %if.then13, label %if.end20

if.then13:                                        ; preds = %land.lhs.true
  %20 = load i8, ptr %ok, align 1
  %tobool14 = trunc i8 %20 to i1
  %conv = zext i1 %tobool14 to i32
  %21 = load ptr, ptr %obj.addr, align 8
  %22 = load ptr, ptr %21, align 8
  %tobool15 = icmp ne ptr %22, null
  %lnot = xor i1 %tobool15, true
  %lnot.ext = zext i1 %lnot to i32
  %cmp = icmp ne i32 %conv, %lnot.ext
  br i1 %cmp, label %if.then17, label %if.else18

if.then17:                                        ; preds = %if.then13
  br label %if.end19

if.else18:                                        ; preds = %if.then13
  call void @__assert_fail(ptr noundef @.str.4, ptr noundef @.str.1, i32 noundef 56, ptr noundef @__PRETTY_FUNCTION__.visit_start_struct) #5
  unreachable

if.end19:                                         ; preds = %if.then17
  br label %if.end20

if.end20:                                         ; preds = %if.end19, %land.lhs.true, %if.end8
  %23 = load i8, ptr %ok, align 1
  %tobool21 = trunc i8 %23 to i1
  ret i1 %tobool21
}