; Function Attrs: nounwind sspstrong uwtable
define dso_local zeroext i1 @visit_start_struct(ptr noundef %v, ptr noundef %name, ptr noundef %obj, i64 noundef %size, ptr noundef %errp) local_unnamed_addr #0 {
entry:
  %_now.i.i = alloca %struct.timeval, align 8
  call void @llvm.lifetime.start.p0(i64 16, ptr nonnull %_now.i.i)
  %0 = load i32, ptr @trace_events_enabled_count, align 4
  %tobool.i.i = icmp ne i32 %0, 0
  %1 = load i16, ptr @_TRACE_VISIT_START_STRUCT_DSTATE, align 2
  %tobool4.i.i = icmp ne i16 %1, 0
  %or.cond.i.i = select i1 %tobool.i.i, i1 %tobool4.i.i, i1 false
  br i1 %or.cond.i.i, label %land.lhs.true5.i.i, label %trace_visit_start_struct.exit

land.lhs.true5.i.i:                               ; preds = %entry
  %2 = load i32, ptr @qemu_loglevel, align 4
  %and.i.i.i = and i32 %2, 32768
  %cmp.i.not.i.i = icmp eq i32 %and.i.i.i, 0
  br i1 %cmp.i.not.i.i, label %trace_visit_start_struct.exit, label %if.then.i.i

if.then.i.i:                                      ; preds = %land.lhs.true5.i.i
  %3 = load i8, ptr @message_with_timestamp, align 1
  %tobool7.i.i = trunc i8 %3 to i1
  br i1 %tobool7.i.i, label %if.then8.i.i, label %if.else.i.i

if.then8.i.i:                                     ; preds = %if.then.i.i
  %call9.i.i = call i32 @gettimeofday(ptr noundef nonnull %_now.i.i, ptr noundef null) #10
  %call10.i.i = tail call i32 @qemu_get_thread_id() #10
  %4 = load i64, ptr %_now.i.i, align 8
  %tv_usec.i.i = getelementptr inbounds nuw i8, ptr %_now.i.i, i64 8
  %5 = load i64, ptr %tv_usec.i.i, align 8
  tail call void (ptr, ...) @qemu_log(ptr noundef nonnull @.str.23, i32 noundef %call10.i.i, i64 noundef %4, i64 noundef %5, ptr noundef %v, ptr noundef %name, ptr noundef %obj, i64 noundef %size) #10
  br label %trace_visit_start_struct.exit

if.else.i.i:                                      ; preds = %if.then.i.i
  tail call void (ptr, ...) @qemu_log(ptr noundef nonnull @.str.24, ptr noundef %v, ptr noundef %name, ptr noundef %obj, i64 noundef %size) #10
  br label %trace_visit_start_struct.exit

trace_visit_start_struct.exit:                    ; preds = %entry, %land.lhs.true5.i.i, %if.then8.i.i, %if.else.i.i
  call void @llvm.lifetime.end.p0(i64 16, ptr nonnull %_now.i.i)
  %tobool.not = icmp eq ptr %obj, null
  br i1 %tobool.not, label %if.end8, label %if.then

if.then:                                          ; preds = %trace_visit_start_struct.exit
  %tobool1.not = icmp eq i64 %size, 0
  br i1 %tobool1.not, label %if.else, label %if.end

if.else:                                          ; preds = %if.then
  tail call void @__assert_fail(ptr noundef nonnull @.str.2, ptr noundef nonnull @.str.1, i32 noundef 51, ptr noundef nonnull @__PRETTY_FUNCTION__.visit_start_struct) #9
  unreachable

if.end:                                           ; preds = %if.then
  %type = getelementptr inbounds nuw i8, ptr %v, i64 160
  %6 = load i32, ptr %type, align 8
  %and = and i32 %6, 2
  %tobool3.not = icmp eq i32 %and, 0
  br i1 %tobool3.not, label %land.lhs.true, label %lor.lhs.false

lor.lhs.false:                                    ; preds = %if.end
  %7 = load ptr, ptr %obj, align 8
  %tobool4.not = icmp eq ptr %7, null
  br i1 %tobool4.not, label %if.else6, label %land.lhs.true

if.else6:                                         ; preds = %lor.lhs.false
  tail call void @__assert_fail(ptr noundef nonnull @.str.3, ptr noundef nonnull @.str.1, i32 noundef 52, ptr noundef nonnull @__PRETTY_FUNCTION__.visit_start_struct) #9
  unreachable

if.end8:                                          ; preds = %trace_visit_start_struct.exit
  %8 = load ptr, ptr %v, align 8
  %call = tail call zeroext i1 %8(ptr noundef nonnull %v, ptr noundef %name, ptr noundef null, i64 noundef %size, ptr noundef %errp) #10
  br label %if.end20

land.lhs.true:                                    ; preds = %lor.lhs.false, %if.end
  %9 = load ptr, ptr %v, align 8
  %call14 = tail call zeroext i1 %9(ptr noundef nonnull %v, ptr noundef %name, ptr noundef nonnull %obj, i64 noundef %size, ptr noundef %errp) #10
  %10 = load i32, ptr %type, align 8
  %and11 = and i32 %10, 1
  %tobool12.not = icmp eq i32 %and11, 0
  br i1 %tobool12.not, label %if.end20, label %if.then13

if.then13:                                        ; preds = %land.lhs.true
  %11 = load ptr, ptr %obj, align 8
  %12 = icmp ne ptr %11, null
  %cmp.not = xor i1 %call14, %12
  br i1 %cmp.not, label %if.else18, label %if.end20

if.else18:                                        ; preds = %if.then13
  tail call void @__assert_fail(ptr noundef nonnull @.str.4, ptr noundef nonnull @.str.1, i32 noundef 56, ptr noundef nonnull @__PRETTY_FUNCTION__.visit_start_struct) #9
  unreachable

if.end20:                                         ; preds = %if.end8, %if.then13, %land.lhs.true
  %call16 = phi i1 [ %call14, %if.then13 ], [ %call14, %land.lhs.true ], [ %call, %if.end8 ]
  ret i1 %call16
}